; ModuleID = '14/14.c'
source_filename = "14/14.c"
target datalayout = "e-m:e-p270:32:32-p271:32:32-p272:64:64-i64:64-f80:128-n8:16:32:64-S128"
target triple = "x86_64-pc-linux-gnu"

%struct.stu = type { i64, i32, i32, i32, %struct.stu* }

@.str = private unnamed_addr constant [3 x i8] c"%d\00", align 1
@.str.1 = private unnamed_addr constant [10 x i8] c"%ld %d %d\00", align 1
@.str.2 = private unnamed_addr constant [8 x i8] c"%ld %d\0A\00", align 1

; Function Attrs: noinline nounwind uwtable
define dso_local void @main() #0 {
  %1 = alloca %struct.stu*, align 8
  %2 = alloca %struct.stu*, align 8
  %3 = alloca %struct.stu*, align 8
  %4 = alloca i32, align 4
  %5 = alloca i32, align 4
  %6 = alloca i32, align 4
  %7 = call i32 (i8*, ...) @__isoc99_scanf(i8* getelementptr inbounds ([3 x i8], [3 x i8]* @.str, i64 0, i64 0), i32* %4)
  %8 = call noalias i8* @malloc(i64 100) #3
  %9 = bitcast i8* %8 to %struct.stu*
  store %struct.stu* %9, %struct.stu** %3, align 8
  store %struct.stu* %9, %struct.stu** %2, align 8
  %10 = load %struct.stu*, %struct.stu** %2, align 8
  %11 = getelementptr inbounds %struct.stu, %struct.stu* %10, i32 0, i32 0
  %12 = load %struct.stu*, %struct.stu** %2, align 8
  %13 = getelementptr inbounds %struct.stu, %struct.stu* %12, i32 0, i32 1
  %14 = load %struct.stu*, %struct.stu** %2, align 8
  %15 = getelementptr inbounds %struct.stu, %struct.stu* %14, i32 0, i32 2
  %16 = call i32 (i8*, ...) @__isoc99_scanf(i8* getelementptr inbounds ([10 x i8], [10 x i8]* @.str.1, i64 0, i64 0), i64* %11, i32* %13, i32* %15)
  %17 = load %struct.stu*, %struct.stu** %2, align 8
  store %struct.stu* %17, %struct.stu** %1, align 8
  store i32 1, i32* %5, align 4
  br label %18

18:                                               ; preds = %45, %0
  %19 = load i32, i32* %5, align 4
  %20 = load i32, i32* %4, align 4
  %21 = icmp slt i32 %19, %20
  br i1 %21, label %22, label %48

22:                                               ; preds = %18
  %23 = call noalias i8* @malloc(i64 100) #3
  %24 = bitcast i8* %23 to %struct.stu*
  store %struct.stu* %24, %struct.stu** %2, align 8
  %25 = load %struct.stu*, %struct.stu** %2, align 8
  %26 = getelementptr inbounds %struct.stu, %struct.stu* %25, i32 0, i32 0
  %27 = load %struct.stu*, %struct.stu** %2, align 8
  %28 = getelementptr inbounds %struct.stu, %struct.stu* %27, i32 0, i32 1
  %29 = load %struct.stu*, %struct.stu** %2, align 8
  %30 = getelementptr inbounds %struct.stu, %struct.stu* %29, i32 0, i32 2
  %31 = call i32 (i8*, ...) @__isoc99_scanf(i8* getelementptr inbounds ([10 x i8], [10 x i8]* @.str.1, i64 0, i64 0), i64* %26, i32* %28, i32* %30)
  %32 = load %struct.stu*, %struct.stu** %2, align 8
  %33 = getelementptr inbounds %struct.stu, %struct.stu* %32, i32 0, i32 1
  %34 = load i32, i32* %33, align 8
  %35 = load %struct.stu*, %struct.stu** %2, align 8
  %36 = getelementptr inbounds %struct.stu, %struct.stu* %35, i32 0, i32 2
  %37 = load i32, i32* %36, align 4
  %38 = add nsw i32 %34, %37
  %39 = load %struct.stu*, %struct.stu** %2, align 8
  %40 = getelementptr inbounds %struct.stu, %struct.stu* %39, i32 0, i32 3
  store i32 %38, i32* %40, align 8
  %41 = load %struct.stu*, %struct.stu** %2, align 8
  %42 = load %struct.stu*, %struct.stu** %3, align 8
  %43 = getelementptr inbounds %struct.stu, %struct.stu* %42, i32 0, i32 4
  store %struct.stu* %41, %struct.stu** %43, align 8
  %44 = load %struct.stu*, %struct.stu** %2, align 8
  store %struct.stu* %44, %struct.stu** %3, align 8
  br label %45

45:                                               ; preds = %22
  %46 = load i32, i32* %5, align 4
  %47 = add nsw i32 %46, 1
  store i32 %47, i32* %5, align 4
  br label %18

48:                                               ; preds = %18
  %49 = load %struct.stu*, %struct.stu** %3, align 8
  %50 = getelementptr inbounds %struct.stu, %struct.stu* %49, i32 0, i32 4
  store %struct.stu* null, %struct.stu** %50, align 8
  store i32 0, i32* %6, align 4
  br label %51

51:                                               ; preds = %96, %48
  %52 = load i32, i32* %6, align 4
  %53 = icmp slt i32 %52, 3
  br i1 %53, label %54, label %101

54:                                               ; preds = %51
  %55 = load %struct.stu*, %struct.stu** %1, align 8
  store %struct.stu* %55, %struct.stu** %3, align 8
  br label %56

56:                                               ; preds = %92, %54
  %57 = load %struct.stu*, %struct.stu** %3, align 8
  %58 = icmp ne %struct.stu* %57, null
  br i1 %58, label %59, label %96

59:                                               ; preds = %56
  %60 = load %struct.stu*, %struct.stu** %3, align 8
  %61 = getelementptr inbounds %struct.stu, %struct.stu* %60, i32 0, i32 4
  %62 = load %struct.stu*, %struct.stu** %61, align 8
  store %struct.stu* %62, %struct.stu** %2, align 8
  br label %63

63:                                               ; preds = %79, %59
  %64 = load %struct.stu*, %struct.stu** %2, align 8
  %65 = icmp ne %struct.stu* %64, null
  br i1 %65, label %66, label %80

66:                                               ; preds = %63
  %67 = load %struct.stu*, %struct.stu** %3, align 8
  %68 = getelementptr inbounds %struct.stu, %struct.stu* %67, i32 0, i32 3
  %69 = load i32, i32* %68, align 8
  %70 = load %struct.stu*, %struct.stu** %2, align 8
  %71 = getelementptr inbounds %struct.stu, %struct.stu* %70, i32 0, i32 3
  %72 = load i32, i32* %71, align 8
  %73 = icmp slt i32 %69, %72
  br i1 %73, label %74, label %75

74:                                               ; preds = %66
  br label %80

75:                                               ; preds = %66
  %76 = load %struct.stu*, %struct.stu** %2, align 8
  %77 = getelementptr inbounds %struct.stu, %struct.stu* %76, i32 0, i32 4
  %78 = load %struct.stu*, %struct.stu** %77, align 8
  store %struct.stu* %78, %struct.stu** %2, align 8
  br label %79

79:                                               ; preds = %75
  br label %63

80:                                               ; preds = %74, %63
  %81 = load %struct.stu*, %struct.stu** %2, align 8
  %82 = icmp eq %struct.stu* %81, null
  br i1 %82, label %83, label %91

83:                                               ; preds = %80
  %84 = load %struct.stu*, %struct.stu** %3, align 8
  %85 = getelementptr inbounds %struct.stu, %struct.stu* %84, i32 0, i32 0
  %86 = load i64, i64* %85, align 8
  %87 = load %struct.stu*, %struct.stu** %3, align 8
  %88 = getelementptr inbounds %struct.stu, %struct.stu* %87, i32 0, i32 3
  %89 = load i32, i32* %88, align 8
  %90 = call i32 (i8*, ...) @printf(i8* getelementptr inbounds ([8 x i8], [8 x i8]* @.str.2, i64 0, i64 0), i64 %86, i32 %89)
  br label %96

91:                                               ; preds = %80
  br label %92

92:                                               ; preds = %91
  %93 = load %struct.stu*, %struct.stu** %3, align 8
  %94 = getelementptr inbounds %struct.stu, %struct.stu* %93, i32 0, i32 4
  %95 = load %struct.stu*, %struct.stu** %94, align 8
  store %struct.stu* %95, %struct.stu** %3, align 8
  br label %56

96:                                               ; preds = %83, %56
  %97 = load i32, i32* %6, align 4
  %98 = add nsw i32 %97, 1
  store i32 %98, i32* %6, align 4
  %99 = load %struct.stu*, %struct.stu** %3, align 8
  %100 = getelementptr inbounds %struct.stu, %struct.stu* %99, i32 0, i32 3
  store i32 0, i32* %100, align 8
  br label %51

101:                                              ; preds = %51
  ret void
}

declare dso_local i32 @__isoc99_scanf(i8*, ...) #1

; Function Attrs: nounwind
declare dso_local noalias i8* @malloc(i64) #2

declare dso_local i32 @printf(i8*, ...) #1


!llvm.module.flags = !{!0}
!llvm.ident = !{!1}

!0 = !{i32 1, !"wchar_size", i32 4}
!1 = !{!"clang version 10.0.0-4ubuntu1 "}
